target datalayout = "e-m:e-p270:32:32-p271:32:32-p272:64:64-i64:64-i128:128-f80:128-n8:16:32:64-S128"
target triple = "x86_64-pc-linux-gnu"

%struct._lv_draw_buf_t = type { %struct.lv_image_header_t, i32, ptr, ptr, ptr }
%struct.lv_image_header_t = type <{ i64, i32 }>
%struct.lv_color32_t = type { i8, i8, i8, i8 }

; Function Attrs: nounwind uwtable
define void @lv_draw_buf_set_palette(ptr noundef %0, i8 noundef zeroext %1, i32 %2) #0 {
  %4 = alloca %struct.lv_color32_t, align 1
  %5 = alloca ptr, align 8
  %6 = alloca i8, align 1
  %7 = alloca ptr, align 8
  store i32 %2, ptr %4, align 1
  store ptr %0, ptr %5, align 8, !tbaa !22
  store i8 %1, ptr %6, align 1, !tbaa !32
  br label %8

8:                                                ; preds = %3
  %9 = load ptr, ptr %5, align 8, !tbaa !22
  %10 = icmp ne ptr %9, null
  br i1 %10, label %15, label %11

11:                                               ; preds = %8
  br label %12

12:                                               ; preds = %11
  br label %13

13:                                               ; preds = %12
  br label %14

14:                                               ; preds = %13, %14
  br label %14

15:                                               ; preds = %8
  br label %16

16:                                               ; preds = %15
  %17 = load ptr, ptr %5, align 8, !tbaa !22
  %18 = icmp eq ptr %17, null
  br i1 %18, label %19, label %20

19:                                               ; preds = %16
  br label %47

20:                                               ; preds = %16
  %21 = load ptr, ptr %5, align 8, !tbaa !22
  %22 = getelementptr inbounds nuw %struct._lv_draw_buf_t, ptr %21, i32 0, i32 0
  %23 = load i64, ptr %22, align 8
  %24 = lshr i64 %23, 8
  %25 = and i64 %24, 255
  %26 = trunc i64 %25 to i32
  %27 = icmp sge i32 %26, 7
  br i1 %27, label %28, label %36

28:                                               ; preds = %20
  %29 = load ptr, ptr %5, align 8, !tbaa !22
  %30 = getelementptr inbounds nuw %struct._lv_draw_buf_t, ptr %29, i32 0, i32 0
  %31 = load i64, ptr %30, align 8
  %32 = lshr i64 %31, 8
  %33 = and i64 %32, 255
  %34 = trunc i64 %33 to i32
  %35 = icmp sle i32 %34, 10
  br i1 %35, label %39, label %36

36:                                               ; preds = %28, %20
  br label %37

37:                                               ; preds = %36
  br label %38

38:                                               ; preds = %37
  br label %47

39:                                               ; preds = %28
  call void @llvm.lifetime.start.p0(i64 8, ptr %7) #5
  %40 = load ptr, ptr %5, align 8, !tbaa !22
  %41 = getelementptr inbounds nuw %struct._lv_draw_buf_t, ptr %40, i32 0, i32 2
  %42 = load ptr, ptr %41, align 8, !tbaa !35
  store ptr %42, ptr %7, align 8, !tbaa !8
  %43 = load ptr, ptr %7, align 8, !tbaa !8
  %44 = load i8, ptr %6, align 1, !tbaa !32
  %45 = zext i8 %44 to i64
  %46 = getelementptr inbounds nuw %struct.lv_color32_t, ptr %43, i64 %45
  call void @llvm.memcpy.p0.p0.i64(ptr align 1 %46, ptr align 1 %4, i64 4, i1 false), !tbaa.struct !48
  call void @llvm.lifetime.end.p0(i64 8, ptr %7) #5
  br label %47

47:                                               ; preds = %39, %38, %19
  ret void
}

; Function Attrs: nounwind uwtable
define void @lv_image_buf_set_palette(ptr noundef %0, i8 noundef zeroext %1, i32 %2) #0 {
  %4 = alloca %struct.lv_color32_t, align 1
  %5 = alloca ptr, align 8
  %6 = alloca i8, align 1
  store i32 %2, ptr %4, align 1
  store ptr %0, ptr %5, align 8, !tbaa !8
  store i8 %1, ptr %6, align 1, !tbaa !32
  br label %7

7:                                                ; preds = %3
  br label %8

8:                                                ; preds = %7
  %9 = load ptr, ptr %5, align 8, !tbaa !8
  %10 = load i8, ptr %6, align 1, !tbaa !32
  %11 = load i32, ptr %4, align 1
  call void @lv_draw_buf_set_palette(ptr noundef %9, i8 noundef zeroext %10, i32 %11)
  ret void
}